target datalayout = "e-m:e-p270:32:32-p271:32:32-p272:64:64-i64:64-i128:128-f80:128-n8:16:32:64-S128"
target triple = "x86_64-pc-linux-gnu"

%struct.wtap = type { ptr, ptr, i8, i32, i32, ptr, ptr, ptr, i32, ptr, ptr, ptr, ptr, ptr, ptr, ptr, ptr, ptr, ptr, i32, i32, ptr, ptr, ptr, ptr }
%struct.k12_t = type { i32, i32, ptr, ptr, ptr, i32, ptr, i32, %struct.Buffer }
%struct.Buffer = type { ptr, i64, i64, i64 }

@.str.11 = private unnamed_addr constant [37 x i8] c"k12: Data record length %d too short\00", align 1

; Function Attrs: inlinehint nounwind null_pointer_is_valid sspstrong uwtable
define internal i32 @pntoh32(ptr noundef %0) #4 {
  %2 = alloca ptr, align 8
  store ptr %0, ptr %2, align 8
  %3 = load ptr, ptr %2, align 8
  %4 = getelementptr i8, ptr %3, i64 0
  %5 = load i8, ptr %4, align 1
  %6 = zext i8 %5 to i32
  %7 = shl i32 %6, 24
  %8 = load ptr, ptr %2, align 8
  %9 = getelementptr i8, ptr %8, i64 1
  %10 = load i8, ptr %9, align 1
  %11 = zext i8 %10 to i32
  %12 = shl i32 %11, 16
  %13 = or i32 %7, %12
  %14 = load ptr, ptr %2, align 8
  %15 = getelementptr i8, ptr %14, i64 2
  %16 = load i8, ptr %15, align 1
  %17 = zext i8 %16 to i32
  %18 = shl i32 %17, 8
  %19 = or i32 %13, %18
  %20 = load ptr, ptr %2, align 8
  %21 = getelementptr i8, ptr %20, i64 3
  %22 = load i8, ptr %21, align 1
  %23 = zext i8 %22 to i32
  %24 = shl i32 %23, 0
  %25 = or i32 %19, %24
  ret i32 %25
}

; Function Attrs: null_pointer_is_valid sspstrong uwtable
define internal zeroext i1 @k12_read(ptr noundef %0, ptr noundef %1, ptr noundef %2, ptr noundef %3, ptr noundef %4) #0 {
  %6 = alloca i1, align 1
  %7 = alloca ptr, align 8
  %8 = alloca ptr, align 8
  %9 = alloca ptr, align 8
  %10 = alloca ptr, align 8
  %11 = alloca ptr, align 8
  %12 = alloca ptr, align 8
  %13 = alloca ptr, align 8
  %14 = alloca ptr, align 8
  %15 = alloca i64, align 8
  %16 = alloca i32, align 4
  %17 = alloca i32, align 4
  %18 = alloca i32, align 4
  %19 = alloca i32, align 4
  store ptr %0, ptr %7, align 8
  store ptr %1, ptr %8, align 8
  store ptr %2, ptr %9, align 8
  store ptr %3, ptr %10, align 8
  store ptr %4, ptr %11, align 8
  call void @llvm.lifetime.start.p0(i64 8, ptr %12) #14
  %20 = load ptr, ptr %7, align 8
  %21 = getelementptr inbounds nuw %struct.wtap, ptr %20, i32 0, i32 13
  %22 = load ptr, ptr %21, align 8
  store ptr %22, ptr %12, align 8
  call void @llvm.lifetime.start.p0(i64 8, ptr %13) #14
  call void @llvm.lifetime.start.p0(i64 8, ptr %14) #14
  call void @llvm.lifetime.start.p0(i64 8, ptr %15) #14
  call void @llvm.lifetime.start.p0(i64 4, ptr %16) #14
  call void @llvm.lifetime.start.p0(i64 4, ptr %17) #14
  call void @llvm.lifetime.start.p0(i64 4, ptr %18) #14
  %23 = load ptr, ptr %7, align 8
  %24 = getelementptr inbounds nuw %struct.wtap, ptr %23, i32 0, i32 0
  %25 = load ptr, ptr %24, align 8
  %26 = call i64 @file_tell(ptr noundef %25)
  store i64 %26, ptr %15, align 8
  br label %27

27:                                               ; preds = %114, %5
  %28 = load ptr, ptr %12, align 8
  %29 = getelementptr inbounds nuw %struct.k12_t, ptr %28, i32 0, i32 1
  %30 = load i32, ptr %29, align 4
  %31 = icmp eq i32 %30, 0
  br i1 %31, label %32, label %34

32:                                               ; preds = %27
  %33 = load ptr, ptr %9, align 8
  store i32 0, ptr %33, align 4
  store i1 false, ptr %6, align 1
  store i32 1, ptr %19, align 4
  br label %124

34:                                               ; preds = %27
  %35 = load i64, ptr %15, align 8
  %36 = load ptr, ptr %11, align 8
  store i64 %35, ptr %36, align 8
  %37 = load ptr, ptr %12, align 8
  %38 = load ptr, ptr %7, align 8
  %39 = getelementptr inbounds nuw %struct.wtap, ptr %38, i32 0, i32 0
  %40 = load ptr, ptr %39, align 8
  %41 = load i64, ptr %15, align 8
  %42 = load ptr, ptr %9, align 8
  %43 = load ptr, ptr %10, align 8
  %44 = call i32 @get_record(ptr noundef %37, ptr noundef %40, i64 noundef %41, i1 noundef zeroext false, ptr noundef %42, ptr noundef %43)
  store i32 %44, ptr %16, align 4
  %45 = load i32, ptr %16, align 4
  %46 = icmp slt i32 %45, 0
  br i1 %46, label %47, label %48

47:                                               ; preds = %34
  store i1 false, ptr %6, align 1
  store i32 1, ptr %19, align 4
  br label %124

48:                                               ; preds = %34
  %49 = load i32, ptr %16, align 4
  %50 = icmp eq i32 %49, 0
  br i1 %50, label %51, label %53

51:                                               ; preds = %48
  %52 = load ptr, ptr %9, align 8
  store i32 -12, ptr %52, align 4
  store i1 false, ptr %6, align 1
  store i32 1, ptr %19, align 4
  br label %124

53:                                               ; preds = %48
  %54 = load i32, ptr %16, align 4
  %55 = icmp slt i32 %54, 16
  br i1 %55, label %56, label %61

56:                                               ; preds = %53
  %57 = load ptr, ptr %9, align 8
  store i32 -13, ptr %57, align 4
  %58 = load i32, ptr %16, align 4
  %59 = call noalias ptr (ptr, ptr, ...) @wmem_strdup_printf(ptr noundef null, ptr noundef @.str.11, i32 noundef %58)
  %60 = load ptr, ptr %10, align 8
  store ptr %59, ptr %60, align 8
  store i1 false, ptr %6, align 1
  store i32 1, ptr %19, align 4
  br label %124

61:                                               ; preds = %53
  br label %62

62:                                               ; preds = %61
  br label %63

63:                                               ; preds = %62
  %64 = load ptr, ptr %12, align 8
  %65 = getelementptr inbounds nuw %struct.k12_t, ptr %64, i32 0, i32 1
  %66 = load i32, ptr %65, align 4
  %67 = add i32 %66, -1
  store i32 %67, ptr %65, align 4
  %68 = load ptr, ptr %12, align 8
  %69 = getelementptr inbounds nuw %struct.k12_t, ptr %68, i32 0, i32 4
  %70 = load ptr, ptr %69, align 8
  store ptr %70, ptr %14, align 8
  %71 = load ptr, ptr %14, align 8
  %72 = getelementptr i8, ptr %71, i64 4
  %73 = call i32 @pntoh32(ptr noundef %72)
  store i32 %73, ptr %17, align 4
  %74 = load ptr, ptr %14, align 8
  %75 = getelementptr i8, ptr %74, i64 12
  %76 = call i32 @pntoh32(ptr noundef %75)
  store i32 %76, ptr %18, align 4
  %77 = load ptr, ptr %12, align 8
  %78 = getelementptr inbounds nuw %struct.k12_t, ptr %77, i32 0, i32 2
  %79 = load ptr, ptr %78, align 8
  %80 = load i32, ptr %18, align 4
  %81 = zext i32 %80 to i64
  %82 = inttoptr i64 %81 to ptr
  %83 = call ptr @g_hash_table_lookup(ptr noundef %79, ptr noundef %82)
  store ptr %83, ptr %13, align 8
  %84 = icmp ne ptr %83, null
  br i1 %84, label %94, label %85

85:                                               ; preds = %63
  %86 = load ptr, ptr %12, align 8
  %87 = getelementptr inbounds nuw %struct.k12_t, ptr %86, i32 0, i32 2
  %88 = load ptr, ptr %87, align 8
  %89 = load i32, ptr %18, align 4
  %90 = and i32 %89, 16777215
  %91 = zext i32 %90 to i64
  %92 = inttoptr i64 %91 to ptr
  %93 = call ptr @g_hash_table_lookup(ptr noundef %88, ptr noundef %92)
  store ptr %93, ptr %13, align 8
  br label %94

94:                                               ; preds = %85, %63
  %95 = load i32, ptr %16, align 4
  %96 = sext i32 %95 to i64
  %97 = load i64, ptr %15, align 8
  %98 = add i64 %97, %96
  store i64 %98, ptr %15, align 8
  br label %99

99:                                               ; preds = %94
  %100 = load i32, ptr %17, align 4
  %101 = and i32 %100, -16
  %102 = icmp ne i32 %101, 65568
  br i1 %102, label %103, label %107

103:                                              ; preds = %99
  %104 = load i32, ptr %17, align 4
  %105 = and i32 %104, -16
  %106 = icmp ne i32 %105, 852000
  br i1 %106, label %114, label %107

107:                                              ; preds = %103, %99
  %108 = load i32, ptr %18, align 4
  %109 = icmp ne i32 %108, 0
  br i1 %109, label %110, label %114

110:                                              ; preds = %107
  %111 = load ptr, ptr %13, align 8
  %112 = icmp ne ptr %111, null
  %113 = xor i1 %112, true
  br label %114

114:                                              ; preds = %110, %107, %103
  %115 = phi i1 [ true, %107 ], [ true, %103 ], [ %113, %110 ]
  br i1 %115, label %27, label %116, !llvm.loop !13

116:                                              ; preds = %114
  %117 = load ptr, ptr %8, align 8
  %118 = load ptr, ptr %14, align 8
  %119 = load i32, ptr %16, align 4
  %120 = load ptr, ptr %12, align 8
  %121 = load ptr, ptr %9, align 8
  %122 = load ptr, ptr %10, align 8
  %123 = call zeroext i1 @process_packet_data(ptr noundef %117, ptr noundef %118, i32 noundef %119, ptr noundef %120, ptr noundef %121, ptr noundef %122)
  store i1 %123, ptr %6, align 1
  store i32 1, ptr %19, align 4
  br label %124

124:                                              ; preds = %116, %56, %51, %47, %32
  call void @llvm.lifetime.end.p0(i64 4, ptr %18) #14
  call void @llvm.lifetime.end.p0(i64 4, ptr %17) #14
  call void @llvm.lifetime.end.p0(i64 4, ptr %16) #14
  call void @llvm.lifetime.end.p0(i64 8, ptr %15) #14
  call void @llvm.lifetime.end.p0(i64 8, ptr %14) #14
  call void @llvm.lifetime.end.p0(i64 8, ptr %13) #14
  call void @llvm.lifetime.end.p0(i64 8, ptr %12) #14
  %125 = load i1, ptr %6, align 1
  ret i1 %125
}