; Function Attrs: null_pointer_is_valid sspstrong uwtable
define internal noundef zeroext i1 @k12_read(ptr noundef readonly captures(none) %0, ptr noundef %1, ptr noundef %2, ptr noundef %3, ptr noundef writeonly captures(none) %4) #0 {
  %6 = getelementptr inbounds nuw i8, ptr %0, i64 96
  %7 = load ptr, ptr %6, align 8
  %8 = load ptr, ptr %0, align 8
  %9 = tail call i64 @file_tell(ptr noundef %8)
  %10 = getelementptr inbounds nuw i8, ptr %7, i64 4
  %11 = load i32, ptr %10, align 4
  %12 = icmp eq i32 %11, 0
  br i1 %12, label %._crit_edge, label %.lr.ph

.lr.ph:                                           ; preds = %5
  %13 = getelementptr inbounds nuw i8, ptr %7, i64 24
  %14 = getelementptr inbounds nuw i8, ptr %7, i64 8
  br label %15

._crit_edge:                                      ; preds = %.backedge, %5
  store i32 0, ptr %2, align 4
  br label %.loopexit

15:                                               ; preds = %.lr.ph, %.backedge
  %.04151 = phi i64 [ %9, %.lr.ph ], [ %77, %.backedge ]
  store i64 %.04151, ptr %4, align 8
  %16 = load ptr, ptr %0, align 8
  %17 = tail call fastcc i32 @get_record(ptr noundef %7, ptr noundef %16, i64 noundef %.04151, i1 noundef zeroext false, ptr noundef %2, ptr noundef %3)
  %18 = icmp slt i32 %17, 0
  br i1 %18, label %.loopexit, label %19

19:                                               ; preds = %15
  %20 = icmp eq i32 %17, 0
  br i1 %20, label %21, label %22

21:                                               ; preds = %19
  store i32 -12, ptr %2, align 4
  br label %.loopexit

22:                                               ; preds = %19
  %23 = icmp samesign ult i32 %17, 16
  br i1 %23, label %24, label %26

24:                                               ; preds = %22
  store i32 -13, ptr %2, align 4
  %25 = tail call noalias ptr (ptr, ptr, ...) @wmem_strdup_printf(ptr noundef null, ptr noundef nonnull @.str.11, i32 noundef %17)
  store ptr %25, ptr %3, align 8
  br label %.loopexit

26:                                               ; preds = %22
  %27 = load i32, ptr %10, align 4
  %28 = add i32 %27, -1
  store i32 %28, ptr %10, align 4
  %29 = load ptr, ptr %13, align 8
  %30 = getelementptr i8, ptr %29, i64 4
  %31 = load i8, ptr %30, align 1
  %32 = zext i8 %31 to i32
  %33 = shl nuw i32 %32, 24
  %34 = getelementptr i8, ptr %29, i64 5
  %35 = load i8, ptr %34, align 1
  %36 = zext i8 %35 to i32
  %37 = shl nuw nsw i32 %36, 16
  %38 = or disjoint i32 %37, %33
  %39 = getelementptr i8, ptr %29, i64 6
  %40 = load i8, ptr %39, align 1
  %41 = zext i8 %40 to i32
  %42 = shl nuw nsw i32 %41, 8
  %43 = or disjoint i32 %38, %42
  %44 = getelementptr i8, ptr %29, i64 7
  %45 = load i8, ptr %44, align 1
  %46 = getelementptr i8, ptr %29, i64 12
  %47 = load i8, ptr %46, align 1
  %48 = zext i8 %47 to i32
  %49 = shl nuw i32 %48, 24
  %50 = getelementptr i8, ptr %29, i64 13
  %51 = load i8, ptr %50, align 1
  %52 = zext i8 %51 to i32
  %53 = shl nuw nsw i32 %52, 16
  %54 = or disjoint i32 %53, %49
  %55 = getelementptr i8, ptr %29, i64 14
  %56 = load i8, ptr %55, align 1
  %57 = zext i8 %56 to i32
  %58 = shl nuw nsw i32 %57, 8
  %59 = or disjoint i32 %54, %58
  %60 = getelementptr i8, ptr %29, i64 15
  %61 = load i8, ptr %60, align 1
  %62 = zext i8 %61 to i32
  %63 = or disjoint i32 %59, %62
  %64 = load ptr, ptr %14, align 8
  %65 = zext i32 %63 to i64
  %66 = inttoptr i64 %65 to ptr
  %67 = tail call ptr @g_hash_table_lookup(ptr noundef %64, ptr noundef %66)
  %.not = icmp eq ptr %67, null
  br i1 %.not, label %68, label %75

68:                                               ; preds = %26
  %69 = load ptr, ptr %14, align 8
  %70 = and i32 %63, 16777215
  %71 = zext nneg i32 %70 to i64
  %72 = inttoptr i64 %71 to ptr
  %73 = tail call ptr @g_hash_table_lookup(ptr noundef %69, ptr noundef %72)
  %74 = icmp eq ptr %73, null
  br label %75

75:                                               ; preds = %68, %26
  %.040 = phi i1 [ false, %26 ], [ %74, %68 ]
  %76 = zext nneg i32 %17 to i64
  %77 = add i64 %.04151, %76
  %78 = and i8 %45, -16
  %.masked = zext i8 %78 to i32
  %79 = or disjoint i32 %43, %.masked
  %.not45 = icmp eq i32 %79, 65568
  br i1 %.not45, label %83, label %80

80:                                               ; preds = %75
  %81 = icmp ne i32 %79, 852000
  %82 = icmp eq i32 %63, 0
  %or.cond.not55 = or i1 %81, %82
  %brmerge = select i1 %or.cond.not55, i1 true, i1 %.040
  br i1 %brmerge, label %.backedge, label %86

83:                                               ; preds = %75
  %.old1.not = icmp eq i32 %63, 0
  %brmerge52 = select i1 %.old1.not, i1 true, i1 %.040
  br i1 %brmerge52, label %.backedge, label %86

.backedge:                                        ; preds = %83, %80
  %84 = load i32, ptr %10, align 4
  %85 = icmp eq i32 %84, 0
  br i1 %85, label %._crit_edge, label %15, !llvm.loop !11

86:                                               ; preds = %83, %80
  %87 = tail call fastcc zeroext i1 @process_packet_data(ptr noundef %1, ptr noundef %29, i32 noundef %17, ptr noundef %7, ptr noundef %2, ptr noundef %3)
  br label %.loopexit

.loopexit:                                        ; preds = %15, %86, %24, %21, %._crit_edge
  %.0 = phi i1 [ false, %._crit_edge ], [ false, %21 ], [ false, %24 ], [ %87, %86 ], [ false, %15 ]
  ret i1 %.0
}